; Function Attrs: mustprogress uwtable
define range(i32 -1, 1) i32 @LGBM_BoosterGetLeafValue(ptr noundef nonnull %0, i32 noundef %1, i32 noundef %2, ptr noundef writeonly captures(none) %3) local_unnamed_addr #5 personality ptr @__gxx_personality_v0 {
  %5 = alloca %"class.std::__cxx11::basic_string", align 8
  %6 = alloca %"class.std::allocator", align 1
  %7 = invoke noundef double @_ZNK8LightGBM7Booster12GetLeafValueEii(ptr noundef nonnull align 8 dereferenceable(1824) %0, i32 noundef %1, i32 noundef %2)
          to label %8 unwind label %9

8:                                                ; preds = %4
  store double %7, ptr %3, align 8, !tbaa !305
  br label %44

9:                                                ; preds = %4
  %10 = landingpad { ptr, i32 }
          catch ptr @_ZTISt9exception
          catch ptr @_ZTINSt7__cxx1112basic_stringIcSt11char_traitsIcESaIcEEE
          catch ptr null
  %11 = extractvalue { ptr, i32 } %10, 0
  %12 = extractvalue { ptr, i32 } %10, 1
  %13 = tail call i32 @llvm.eh.typeid.for.p0(ptr nonnull @_ZTISt9exception) #26
  %14 = icmp eq i32 %12, %13
  br i1 %14, label %15, label %23

15:                                               ; preds = %9
  %16 = tail call ptr @__cxa_begin_catch(ptr %11) #26
  %17 = load ptr, ptr %16, align 8, !tbaa !14
  %18 = getelementptr inbounds nuw i8, ptr %17, i64 16
  %19 = load ptr, ptr %18, align 8
  %20 = tail call noundef ptr %19(ptr noundef nonnull align 8 dereferenceable(8) %16) #26
  %21 = tail call noundef nonnull align 16 ptr @llvm.threadlocal.address.p0(ptr align 16 @_ZZL12LastErrorMsgvE7err_msg)
  %22 = tail call i32 (ptr, i64, ptr, ...) @snprintf(ptr noundef nonnull dereferenceable(1) %21, i64 noundef 512, ptr noundef nonnull @.str.1, ptr noundef %20) #26
  tail call void @__cxa_end_catch()
  br label %44

23:                                               ; preds = %9
  %24 = tail call i32 @llvm.eh.typeid.for.p0(ptr nonnull @_ZTINSt7__cxx1112basic_stringIcSt11char_traitsIcESaIcEEE) #26
  %25 = icmp eq i32 %12, %24
  %26 = tail call ptr @__cxa_begin_catch(ptr %11) #26
  br i1 %25, label %27, label %31

27:                                               ; preds = %23
  %28 = load ptr, ptr %26, align 8, !tbaa !13
  %29 = tail call noundef nonnull align 16 ptr @llvm.threadlocal.address.p0(ptr align 16 @_ZZL12LastErrorMsgvE7err_msg)
  %30 = tail call i32 (ptr, i64, ptr, ...) @snprintf(ptr noundef nonnull dereferenceable(1) %29, i64 noundef 512, ptr noundef nonnull @.str.1, ptr noundef %28) #26
  tail call void @__cxa_end_catch()
  br label %44

31:                                               ; preds = %23
  call void @llvm.lifetime.start.p0(i64 32, ptr nonnull %5) #26
  call void @llvm.lifetime.start.p0(i64 1, ptr nonnull %6) #26
  invoke void @_ZNSt7__cxx1112basic_stringIcSt11char_traitsIcESaIcEEC2EPKcRKS3_(ptr noundef nonnull align 8 dereferenceable(32) %5, ptr noundef nonnull @.str, ptr noundef nonnull align 1 dereferenceable(1) %6)
          to label %32 unwind label %42

32:                                               ; preds = %31
  %33 = load ptr, ptr %5, align 8, !tbaa !13
  %34 = call noundef nonnull align 16 ptr @llvm.threadlocal.address.p0(ptr align 16 @_ZZL12LastErrorMsgvE7err_msg)
  %35 = call i32 (ptr, i64, ptr, ...) @snprintf(ptr noundef nonnull dereferenceable(1) %34, i64 noundef 512, ptr noundef nonnull @.str.1, ptr noundef %33) #26
  %36 = load ptr, ptr %5, align 8, !tbaa !13
  %37 = getelementptr inbounds nuw i8, ptr %5, i64 16
  %38 = icmp eq ptr %36, %37
  br i1 %38, label %_ZNKSt7__cxx1112basic_stringIcSt11char_traitsIcESaIcEE11_M_is_localEv.exit.thread.i.i, label %_ZNKSt7__cxx1112basic_stringIcSt11char_traitsIcESaIcEE11_M_is_localEv.exit.i.i

_ZNKSt7__cxx1112basic_stringIcSt11char_traitsIcESaIcEE11_M_is_localEv.exit.thread.i.i: ; preds = %32
  %39 = getelementptr inbounds nuw i8, ptr %5, i64 8
  %40 = load i64, ptr %39, align 8, !tbaa !4
  %41 = icmp ult i64 %40, 16
  call void @llvm.assume(i1 %41)
  br label %_ZNSt7__cxx1112basic_stringIcSt11char_traitsIcESaIcEED2Ev.exit

_ZNKSt7__cxx1112basic_stringIcSt11char_traitsIcESaIcEE11_M_is_localEv.exit.i.i: ; preds = %32
  call void @_ZdlPv(ptr noundef %36) #39
  br label %_ZNSt7__cxx1112basic_stringIcSt11char_traitsIcESaIcEED2Ev.exit

_ZNSt7__cxx1112basic_stringIcSt11char_traitsIcESaIcEED2Ev.exit: ; preds = %_ZNKSt7__cxx1112basic_stringIcSt11char_traitsIcESaIcEE11_M_is_localEv.exit.thread.i.i, %_ZNKSt7__cxx1112basic_stringIcSt11char_traitsIcESaIcEE11_M_is_localEv.exit.i.i
  call void @llvm.lifetime.end.p0(i64 1, ptr nonnull %6) #26
  call void @llvm.lifetime.end.p0(i64 32, ptr nonnull %5) #26
  call void @__cxa_end_catch()
  br label %44

42:                                               ; preds = %31
  %43 = landingpad { ptr, i32 }
          cleanup
  call void @llvm.lifetime.end.p0(i64 1, ptr nonnull %6) #26
  call void @llvm.lifetime.end.p0(i64 32, ptr nonnull %5) #26
  invoke void @__cxa_end_catch()
          to label %45 unwind label %46

44:                                               ; preds = %8, %_ZNSt7__cxx1112basic_stringIcSt11char_traitsIcESaIcEED2Ev.exit, %27, %15
  %.0 = phi i32 [ 0, %8 ], [ -1, %15 ], [ -1, %27 ], [ -1, %_ZNSt7__cxx1112basic_stringIcSt11char_traitsIcESaIcEED2Ev.exit ]
  ret i32 %.0

45:                                               ; preds = %42
  resume { ptr, i32 } %43

46:                                               ; preds = %42
  %47 = landingpad { ptr, i32 }
          catch ptr null
  %48 = extractvalue { ptr, i32 } %47, 0
  call void @__clang_call_terminate(ptr %48) #40
  unreachable
}